target datalayout = "e-m:e-p270:32:32-p271:32:32-p272:64:64-i64:64-i128:128-f80:128-n8:16:32:64-S128"
target triple = "x86_64-pc-linux-gnu"

%struct._object = type { %union.anon, ptr }
%union.anon = type { i64 }
%struct.PyVarObject = type { %struct._object, i64 }
%struct.anon = type { i32, i32 }
%struct.PyTupleObject = type { %struct.PyVarObject, [1 x ptr] }

@PyExc_SystemError = external global ptr, align 8
@.str.8 = private unnamed_addr constant [26 x i8] c"Unmatched paren in format\00", align 1

; Function Attrs: alwaysinline nounwind uwtable
define internal i32 @_Py_IsImmortal(ptr noundef %0) #5 {
  %2 = alloca ptr, align 8
  store ptr %0, ptr %2, align 8, !tbaa !4
  %3 = load ptr, ptr %2, align 8, !tbaa !4
  %4 = getelementptr inbounds nuw %struct._object, ptr %3, i32 0, i32 0
  %5 = getelementptr inbounds nuw %struct.anon, ptr %4, i32 0, i32 0
  %6 = load i32, ptr %5, align 8, !tbaa !35
  %7 = icmp slt i32 %6, 0
  %8 = zext i1 %7 to i32
  ret i32 %8
}

; Function Attrs: nounwind uwtable
define internal i32 @check_end(ptr noundef %0, i8 noundef signext %1) #0 {
  %3 = alloca i32, align 4
  %4 = alloca ptr, align 8
  %5 = alloca i8, align 1
  %6 = alloca ptr, align 8
  %7 = alloca i32, align 4
  store ptr %0, ptr %4, align 8, !tbaa !38
  store i8 %1, ptr %5, align 1, !tbaa !35
  call void @llvm.lifetime.start.p0(i64 8, ptr %6) #7
  %8 = load ptr, ptr %4, align 8, !tbaa !38
  %9 = load ptr, ptr %8, align 8, !tbaa !27
  store ptr %9, ptr %6, align 8, !tbaa !27
  br label %10

10:                                               ; preds = %39, %2
  %11 = load ptr, ptr %6, align 8, !tbaa !27
  %12 = load i8, ptr %11, align 1, !tbaa !35
  %13 = sext i8 %12 to i32
  %14 = load i8, ptr %5, align 1, !tbaa !35
  %15 = sext i8 %14 to i32
  %16 = icmp ne i32 %13, %15
  br i1 %16, label %17, label %42

17:                                               ; preds = %10
  %18 = load ptr, ptr %6, align 8, !tbaa !27
  %19 = load i8, ptr %18, align 1, !tbaa !35
  %20 = sext i8 %19 to i32
  %21 = icmp ne i32 %20, 32
  br i1 %21, label %22, label %39

22:                                               ; preds = %17
  %23 = load ptr, ptr %6, align 8, !tbaa !27
  %24 = load i8, ptr %23, align 1, !tbaa !35
  %25 = sext i8 %24 to i32
  %26 = icmp ne i32 %25, 9
  br i1 %26, label %27, label %39

27:                                               ; preds = %22
  %28 = load ptr, ptr %6, align 8, !tbaa !27
  %29 = load i8, ptr %28, align 1, !tbaa !35
  %30 = sext i8 %29 to i32
  %31 = icmp ne i32 %30, 44
  br i1 %31, label %32, label %39

32:                                               ; preds = %27
  %33 = load ptr, ptr %6, align 8, !tbaa !27
  %34 = load i8, ptr %33, align 1, !tbaa !35
  %35 = sext i8 %34 to i32
  %36 = icmp ne i32 %35, 58
  br i1 %36, label %37, label %39

37:                                               ; preds = %32
  %38 = load ptr, ptr @PyExc_SystemError, align 8, !tbaa !4
  call void @PyErr_SetString(ptr noundef %38, ptr noundef @.str.8)
  store i32 0, ptr %3, align 4
  store i32 1, ptr %7, align 4
  br label %51

39:                                               ; preds = %32, %27, %22, %17
  %40 = load ptr, ptr %6, align 8, !tbaa !27
  %41 = getelementptr i8, ptr %40, i32 1
  store ptr %41, ptr %6, align 8, !tbaa !27
  br label %10, !llvm.loop !55

42:                                               ; preds = %10
  %43 = load i8, ptr %5, align 1, !tbaa !35
  %44 = icmp ne i8 %43, 0
  br i1 %44, label %45, label %48

45:                                               ; preds = %42
  %46 = load ptr, ptr %6, align 8, !tbaa !27
  %47 = getelementptr i8, ptr %46, i32 1
  store ptr %47, ptr %6, align 8, !tbaa !27
  br label %48

48:                                               ; preds = %45, %42
  %49 = load ptr, ptr %6, align 8, !tbaa !27
  %50 = load ptr, ptr %4, align 8, !tbaa !38
  store ptr %49, ptr %50, align 8, !tbaa !27
  store i32 1, ptr %3, align 4
  store i32 1, ptr %7, align 4
  br label %51

51:                                               ; preds = %48, %37
  call void @llvm.lifetime.end.p0(i64 8, ptr %6) #7
  %52 = load i32, ptr %3, align 4
  ret i32 %52
}

; Function Attrs: inlinehint nounwind uwtable
define internal void @Py_XDECREF(ptr noundef %0) #2 {
  %2 = alloca ptr, align 8
  store ptr %0, ptr %2, align 8, !tbaa !4
  %3 = load ptr, ptr %2, align 8, !tbaa !4
  %4 = icmp ne ptr %3, null
  br i1 %4, label %5, label %7

5:                                                ; preds = %1
  %6 = load ptr, ptr %2, align 8, !tbaa !4
  call void @Py_DECREF(ptr noundef %6)
  br label %7

7:                                                ; preds = %5, %1
  ret void
}

; Function Attrs: alwaysinline nounwind uwtable
define internal void @Py_DECREF(ptr noundef %0) #5 {
  %2 = alloca ptr, align 8
  store ptr %0, ptr %2, align 8, !tbaa !4
  %3 = load ptr, ptr %2, align 8, !tbaa !4
  %4 = call i32 @_Py_IsImmortal(ptr noundef %3)
  %5 = icmp ne i32 %4, 0
  br i1 %5, label %6, label %7

6:                                                ; preds = %1
  br label %16

7:                                                ; preds = %1
  %8 = load ptr, ptr %2, align 8, !tbaa !4
  %9 = getelementptr inbounds nuw %struct._object, ptr %8, i32 0, i32 0
  %10 = getelementptr inbounds nuw %struct.anon, ptr %9, i32 0, i32 0
  %11 = load i32, ptr %10, align 8, !tbaa !35
  %12 = add i32 %11, -1
  store i32 %12, ptr %10, align 8, !tbaa !35
  %13 = icmp eq i32 %12, 0
  br i1 %13, label %14, label %16

14:                                               ; preds = %7
  %15 = load ptr, ptr %2, align 8, !tbaa !4
  call void @_Py_Dealloc(ptr noundef %15)
  br label %16

16:                                               ; preds = %6, %14, %7
  ret void
}

; Function Attrs: inlinehint nounwind uwtable
define internal void @PyTuple_SET_ITEM(ptr noundef %0, i64 noundef %1, ptr noundef %2) #2 {
  %4 = alloca ptr, align 8
  %5 = alloca i64, align 8
  %6 = alloca ptr, align 8
  %7 = alloca ptr, align 8
  store ptr %0, ptr %4, align 8, !tbaa !4
  store i64 %1, ptr %5, align 8, !tbaa !10
  store ptr %2, ptr %6, align 8, !tbaa !4
  call void @llvm.lifetime.start.p0(i64 8, ptr %7) #7
  %8 = load ptr, ptr %4, align 8, !tbaa !4
  store ptr %8, ptr %7, align 8, !tbaa !9
  %9 = load ptr, ptr %6, align 8, !tbaa !4
  %10 = load ptr, ptr %7, align 8, !tbaa !9
  %11 = getelementptr inbounds nuw %struct.PyTupleObject, ptr %10, i32 0, i32 1
  %12 = load i64, ptr %5, align 8, !tbaa !10
  %13 = getelementptr [1 x ptr], ptr %11, i64 0, i64 %12
  store ptr %9, ptr %13, align 8, !tbaa !4
  call void @llvm.lifetime.end.p0(i64 8, ptr %7) #7
  ret void
}

; Function Attrs: nounwind uwtable
define internal void @do_ignore(ptr noundef %0, ptr noundef %1, i8 noundef signext %2, i64 noundef %3) #0 {
  %5 = alloca ptr, align 8
  %6 = alloca ptr, align 8
  %7 = alloca i8, align 1
  %8 = alloca i64, align 8
  %9 = alloca ptr, align 8
  %10 = alloca i64, align 8
  %11 = alloca ptr, align 8
  %12 = alloca ptr, align 8
  %13 = alloca i32, align 4
  store ptr %0, ptr %5, align 8, !tbaa !38
  store ptr %1, ptr %6, align 8, !tbaa !28
  store i8 %2, ptr %7, align 1, !tbaa !35
  store i64 %3, ptr %8, align 8, !tbaa !10
  call void @llvm.lifetime.start.p0(i64 8, ptr %9) #7
  %14 = load i64, ptr %8, align 8, !tbaa !10
  %15 = call ptr @PyTuple_New(i64 noundef %14)
  store ptr %15, ptr %9, align 8, !tbaa !4
  call void @llvm.lifetime.start.p0(i64 8, ptr %10) #7
  store i64 0, ptr %10, align 8, !tbaa !10
  br label %16

16:                                               ; preds = %40, %4
  %17 = load i64, ptr %10, align 8, !tbaa !10
  %18 = load i64, ptr %8, align 8, !tbaa !10
  %19 = icmp slt i64 %17, %18
  br i1 %19, label %21, label %20

20:                                               ; preds = %16
  call void @llvm.lifetime.end.p0(i64 8, ptr %10) #7
  br label %43

21:                                               ; preds = %16
  call void @llvm.lifetime.start.p0(i64 8, ptr %11) #7
  %22 = call ptr @PyErr_GetRaisedException()
  store ptr %22, ptr %11, align 8, !tbaa !4
  call void @llvm.lifetime.start.p0(i64 8, ptr %12) #7
  %23 = load ptr, ptr %5, align 8, !tbaa !38
  %24 = load ptr, ptr %6, align 8, !tbaa !28
  %25 = call ptr @do_mkvalue(ptr noundef %23, ptr noundef %24)
  store ptr %25, ptr %12, align 8, !tbaa !4
  %26 = load ptr, ptr %11, align 8, !tbaa !4
  call void @PyErr_SetRaisedException(ptr noundef %26)
  %27 = load ptr, ptr %12, align 8, !tbaa !4
  %28 = icmp ne ptr %27, null
  br i1 %28, label %29, label %39

29:                                               ; preds = %21
  %30 = load ptr, ptr %9, align 8, !tbaa !4
  %31 = icmp ne ptr %30, null
  br i1 %31, label %32, label %36

32:                                               ; preds = %29
  %33 = load ptr, ptr %9, align 8, !tbaa !4
  %34 = load i64, ptr %10, align 8, !tbaa !10
  %35 = load ptr, ptr %12, align 8, !tbaa !4
  call void @PyTuple_SET_ITEM(ptr noundef %33, i64 noundef %34, ptr noundef %35)
  br label %38

36:                                               ; preds = %29
  %37 = load ptr, ptr %12, align 8, !tbaa !4
  call void @Py_DECREF(ptr noundef %37)
  br label %38

38:                                               ; preds = %36, %32
  br label %39

39:                                               ; preds = %38, %21
  call void @llvm.lifetime.end.p0(i64 8, ptr %12) #7
  call void @llvm.lifetime.end.p0(i64 8, ptr %11) #7
  br label %40

40:                                               ; preds = %39
  %41 = load i64, ptr %10, align 8, !tbaa !10
  %42 = add i64 %41, 1
  store i64 %42, ptr %10, align 8, !tbaa !10
  br label %16, !llvm.loop !52

43:                                               ; preds = %20
  %44 = load ptr, ptr %9, align 8, !tbaa !4
  call void @Py_XDECREF(ptr noundef %44)
  %45 = load ptr, ptr %5, align 8, !tbaa !38
  %46 = load i8, ptr %7, align 1, !tbaa !35
  %47 = call i32 @check_end(ptr noundef %45, i8 noundef signext %46)
  %48 = icmp ne i32 %47, 0
  br i1 %48, label %50, label %49

49:                                               ; preds = %43
  store i32 1, ptr %13, align 4
  br label %51

50:                                               ; preds = %43
  store i32 0, ptr %13, align 4
  br label %51

51:                                               ; preds = %50, %49
  call void @llvm.lifetime.end.p0(i64 8, ptr %9) #7
  %52 = load i32, ptr %13, align 4
  switch i32 %52, label %54 [
    i32 0, label %53
    i32 1, label %53
  ]

53:                                               ; preds = %51, %51
  ret void

54:                                               ; preds = %51
  unreachable
}