; Function Attrs: nounwind uwtable
define internal fastcc void @do_ignore(ptr noundef nonnull captures(none) %0, ptr noundef nonnull %1, i8 noundef signext range(i8 0, 126) %2, i64 noundef %3) unnamed_addr #0 {
  %5 = tail call ptr @PyTuple_New(i64 noundef %3) #7
  %.fr = freeze ptr %5
  %6 = icmp sgt i64 %3, 0
  br i1 %6, label %.lr.ph, label %._crit_edge

.lr.ph:                                           ; preds = %4
  %.not18 = icmp eq ptr %.fr, null
  %7 = getelementptr inbounds nuw i8, ptr %.fr, i64 24
  br i1 %.not18, label %.lr.ph.split.us, label %.lr.ph.split

.lr.ph.split.us:                                  ; preds = %.lr.ph, %Py_DECREF.exit.us
  %.021.us = phi i64 [ %16, %Py_DECREF.exit.us ], [ 0, %.lr.ph ]
  %8 = tail call ptr @PyErr_GetRaisedException() #7
  %9 = tail call fastcc ptr @do_mkvalue(ptr noundef %0, ptr noundef %1)
  tail call void @PyErr_SetRaisedException(ptr noundef %8) #7
  %.not17.us = icmp eq ptr %9, null
  br i1 %.not17.us, label %Py_DECREF.exit.us, label %10

10:                                               ; preds = %.lr.ph.split.us
  %11 = load i32, ptr %9, align 8, !tbaa !29
  %.not.i.us = icmp sgt i32 %11, -1
  br i1 %.not.i.us, label %12, label %Py_DECREF.exit.us

12:                                               ; preds = %10
  %13 = add nsw i32 %11, -1
  store i32 %13, ptr %9, align 8, !tbaa !29
  %14 = icmp eq i32 %13, 0
  br i1 %14, label %15, label %Py_DECREF.exit.us

15:                                               ; preds = %12
  tail call void @_Py_Dealloc(ptr noundef nonnull %9) #7
  br label %Py_DECREF.exit.us

Py_DECREF.exit.us:                                ; preds = %15, %12, %10, %.lr.ph.split.us
  %16 = add nuw nsw i64 %.021.us, 1
  %exitcond23.not = icmp eq i64 %16, %3
  br i1 %exitcond23.not, label %._crit_edge, label %.lr.ph.split.us, !llvm.loop !47

._crit_edge:                                      ; preds = %Py_DECREF.exit, %Py_DECREF.exit.us, %4
  %.not.i19 = icmp eq ptr %.fr, null
  br i1 %.not.i19, label %Py_XDECREF.exit, label %17

17:                                               ; preds = %._crit_edge
  %18 = load i32, ptr %.fr, align 8, !tbaa !29
  %.not.i.i = icmp sgt i32 %18, -1
  br i1 %.not.i.i, label %19, label %Py_XDECREF.exit

19:                                               ; preds = %17
  %20 = add nsw i32 %18, -1
  store i32 %20, ptr %.fr, align 8, !tbaa !29
  %21 = icmp eq i32 %20, 0
  br i1 %21, label %22, label %Py_XDECREF.exit

22:                                               ; preds = %19
  tail call void @_Py_Dealloc(ptr noundef nonnull %.fr) #7
  br label %Py_XDECREF.exit

Py_XDECREF.exit:                                  ; preds = %._crit_edge, %17, %19, %22
  %23 = load ptr, ptr %0, align 8, !tbaa !26
  %24 = load i8, ptr %23, align 1, !tbaa !29
  %.not20.i = icmp eq i8 %24, %2
  br i1 %.not20.i, label %._crit_edge.i, label %.lr.ph.i

.lr.ph.i:                                         ; preds = %Py_XDECREF.exit, %28
  %25 = phi i8 [ %30, %28 ], [ %24, %Py_XDECREF.exit ]
  %.021.i = phi ptr [ %29, %28 ], [ %23, %Py_XDECREF.exit ]
  switch i8 %25, label %26 [
    i8 32, label %28
    i8 9, label %28
    i8 44, label %28
    i8 58, label %28
  ]

26:                                               ; preds = %.lr.ph.i
  %27 = load ptr, ptr @PyExc_SystemError, align 8, !tbaa !23
  tail call void @PyErr_SetString(ptr noundef %27, ptr noundef nonnull @.str.8) #7
  br label %check_end.exit

28:                                               ; preds = %.lr.ph.i, %.lr.ph.i, %.lr.ph.i, %.lr.ph.i
  %29 = getelementptr i8, ptr %.021.i, i64 1
  %30 = load i8, ptr %29, align 1, !tbaa !29
  %.not.i20 = icmp eq i8 %30, %2
  br i1 %.not.i20, label %._crit_edge.i, label %.lr.ph.i, !llvm.loop !30

._crit_edge.i:                                    ; preds = %28, %Py_XDECREF.exit
  %.0.lcssa.i = phi ptr [ %23, %Py_XDECREF.exit ], [ %29, %28 ]
  %.not14.i = icmp ne i8 %2, 0
  %spec.select.idx.i = zext i1 %.not14.i to i64
  %spec.select.i = getelementptr i8, ptr %.0.lcssa.i, i64 %spec.select.idx.i
  store ptr %spec.select.i, ptr %0, align 8, !tbaa !26
  br label %check_end.exit

check_end.exit:                                   ; preds = %26, %._crit_edge.i
  ret void

.lr.ph.split:                                     ; preds = %.lr.ph, %Py_DECREF.exit
  %.021 = phi i64 [ %35, %Py_DECREF.exit ], [ 0, %.lr.ph ]
  %31 = tail call ptr @PyErr_GetRaisedException() #7
  %32 = tail call fastcc ptr @do_mkvalue(ptr noundef %0, ptr noundef %1)
  tail call void @PyErr_SetRaisedException(ptr noundef %31) #7
  %.not17 = icmp eq ptr %32, null
  br i1 %.not17, label %Py_DECREF.exit, label %33

33:                                               ; preds = %.lr.ph.split
  %34 = getelementptr [1 x ptr], ptr %7, i64 0, i64 %.021
  store ptr %32, ptr %34, align 8, !tbaa !23
  br label %Py_DECREF.exit

Py_DECREF.exit:                                   ; preds = %33, %.lr.ph.split
  %35 = add nuw nsw i64 %.021, 1
  %exitcond.not = icmp eq i64 %35, %3
  br i1 %exitcond.not, label %._crit_edge, label %.lr.ph.split, !llvm.loop !47
}